target datalayout = "e-m:e-p270:32:32-p271:32:32-p272:64:64-i64:64-i128:128-f80:128-n8:16:32:64-S128"
target triple = "x86_64-unknown-linux-gnu"

; Function Attrs: mustprogress uwtable
define void @ucal_clearField_75(ptr noundef %cal, i32 noundef %field) #1 {
entry:
  %cal.addr = alloca ptr, align 8
  %field.addr = alloca i32, align 4
  store ptr %cal, ptr %cal.addr, align 8
  store i32 %field, ptr %field.addr, align 4
  %0 = load i32, ptr %field.addr, align 4
  %cmp = icmp slt i32 %0, 0
  br i1 %cmp, label %if.then, label %lor.lhs.false

lor.lhs.false:                                    ; preds = %entry
  %1 = load i32, ptr %field.addr, align 4
  %cmp1 = icmp sle i32 24, %1
  br i1 %cmp1, label %if.then, label %if.end

if.then:                                          ; preds = %lor.lhs.false, %entry
  br label %return

if.end:                                           ; preds = %lor.lhs.false
  %2 = load ptr, ptr %cal.addr, align 8
  %3 = load i32, ptr %field.addr, align 4
  call void @_ZN6icu_758Calendar5clearE19UCalendarDateFields(ptr noundef nonnull align 8 dereferenceable(618) %2, i32 noundef %3)
  br label %return

return:                                           ; preds = %if.end, %if.then
  ret void
}