; Function Attrs: mustprogress uwtable
define void @ucal_clearField_75(ptr noundef %cal, i32 noundef %field) local_unnamed_addr #1 {
entry:
  %or.cond = icmp ugt i32 %field, 23
  br i1 %or.cond, label %return, label %if.end

if.end:                                           ; preds = %entry
  tail call void @_ZN6icu_758Calendar5clearE19UCalendarDateFields(ptr noundef nonnull align 8 dereferenceable(618) %cal, i32 noundef %field)
  br label %return

return:                                           ; preds = %entry, %if.end
  ret void
}